target datalayout = "e-m:e-p270:32:32-p271:32:32-p272:64:64-i64:64-i128:128-f80:128-n8:16:32:64-S128"
target triple = "x86_64-pc-linux-gnu"

; Function Attrs: nounwind uwtable
define void @ff_ivi_dc_row_slant(ptr noundef %0, ptr noundef %1, i64 noundef %2, i32 noundef %3) #0 {
  %5 = alloca ptr, align 8
  %6 = alloca ptr, align 8
  %7 = alloca i64, align 8
  %8 = alloca i32, align 4
  %9 = alloca i32, align 4
  %10 = alloca i32, align 4
  %11 = alloca i16, align 2
  store ptr %0, ptr %5, align 8, !tbaa !40
  store ptr %1, ptr %6, align 8, !tbaa !30
  store i64 %2, ptr %7, align 8, !tbaa !11
  store i32 %3, ptr %8, align 4, !tbaa !13
  call void @llvm.lifetime.start.p0(i64 4, ptr %9) #4
  call void @llvm.lifetime.start.p0(i64 4, ptr %10) #4
  call void @llvm.lifetime.start.p0(i64 2, ptr %11) #4
  %12 = load ptr, ptr %5, align 8, !tbaa !40
  %13 = load i32, ptr %12, align 4, !tbaa !13
  %14 = add nsw i32 %13, 1
  %15 = ashr i32 %14, 1
  %16 = trunc i32 %15 to i16
  store i16 %16, ptr %11, align 2, !tbaa !32
  store i32 0, ptr %9, align 4, !tbaa !13
  br label %17

17:                                               ; preds = %27, %4
  %18 = load i32, ptr %9, align 4, !tbaa !13
  %19 = load i32, ptr %8, align 4, !tbaa !13
  %20 = icmp slt i32 %18, %19
  br i1 %20, label %21, label %30

21:                                               ; preds = %17
  %22 = load i16, ptr %11, align 2, !tbaa !32
  %23 = load ptr, ptr %6, align 8, !tbaa !30
  %24 = load i32, ptr %9, align 4, !tbaa !13
  %25 = sext i32 %24 to i64
  %26 = getelementptr inbounds i16, ptr %23, i64 %25
  store i16 %22, ptr %26, align 2, !tbaa !32
  br label %27

27:                                               ; preds = %21
  %28 = load i32, ptr %9, align 4, !tbaa !13
  %29 = add nsw i32 %28, 1
  store i32 %29, ptr %9, align 4, !tbaa !13
  br label %17, !llvm.loop !59

30:                                               ; preds = %17
  %31 = load i64, ptr %7, align 8, !tbaa !11
  %32 = load ptr, ptr %6, align 8, !tbaa !30
  %33 = getelementptr inbounds i16, ptr %32, i64 %31
  store ptr %33, ptr %6, align 8, !tbaa !30
  store i32 1, ptr %10, align 4, !tbaa !13
  br label %34

34:                                               ; preds = %52, %30
  %35 = load i32, ptr %10, align 4, !tbaa !13
  %36 = load i32, ptr %8, align 4, !tbaa !13
  %37 = icmp slt i32 %35, %36
  br i1 %37, label %38, label %58

38:                                               ; preds = %34
  store i32 0, ptr %9, align 4, !tbaa !13
  br label %39

39:                                               ; preds = %48, %38
  %40 = load i32, ptr %9, align 4, !tbaa !13
  %41 = load i32, ptr %8, align 4, !tbaa !13
  %42 = icmp slt i32 %40, %41
  br i1 %42, label %43, label %51

43:                                               ; preds = %39
  %44 = load ptr, ptr %6, align 8, !tbaa !30
  %45 = load i32, ptr %9, align 4, !tbaa !13
  %46 = sext i32 %45 to i64
  %47 = getelementptr inbounds i16, ptr %44, i64 %46
  store i16 0, ptr %47, align 2, !tbaa !32
  br label %48

48:                                               ; preds = %43
  %49 = load i32, ptr %9, align 4, !tbaa !13
  %50 = add nsw i32 %49, 1
  store i32 %50, ptr %9, align 4, !tbaa !13
  br label %39, !llvm.loop !60

51:                                               ; preds = %39
  br label %52

52:                                               ; preds = %51
  %53 = load i64, ptr %7, align 8, !tbaa !11
  %54 = load ptr, ptr %6, align 8, !tbaa !30
  %55 = getelementptr inbounds i16, ptr %54, i64 %53
  store ptr %55, ptr %6, align 8, !tbaa !30
  %56 = load i32, ptr %10, align 4, !tbaa !13
  %57 = add nsw i32 %56, 1
  store i32 %57, ptr %10, align 4, !tbaa !13
  br label %34, !llvm.loop !61

58:                                               ; preds = %34
  call void @llvm.lifetime.end.p0(i64 2, ptr %11) #4
  call void @llvm.lifetime.end.p0(i64 4, ptr %10) #4
  call void @llvm.lifetime.end.p0(i64 4, ptr %9) #4
  ret void
}