; Function Attrs: nofree norecurse nosync nounwind memory(argmem: readwrite) uwtable
define void @ff_ivi_dc_row_slant(ptr noundef readonly captures(none) %0, ptr noundef writeonly captures(none) %1, i64 noundef %2, i32 noundef %3) local_unnamed_addr #2 {
  %5 = load i32, ptr %0, align 4, !tbaa !34
  %6 = add nsw i32 %5, 1
  %7 = lshr i32 %6, 1
  %8 = trunc i32 %7 to i16
  %9 = icmp sgt i32 %3, 0
  br i1 %9, label %.lr.ph.preheader, label %._crit_edge28

.lr.ph.preheader:                                 ; preds = %4
  %wide.trip.count = zext nneg i32 %3 to i64
  br label %.lr.ph

.preheader21:                                     ; preds = %.lr.ph
  %.not = icmp eq i32 %3, 1
  br i1 %.not, label %._crit_edge28, label %.preheader.us.preheader

.preheader.us.preheader:                          ; preds = %.preheader21
  %10 = shl i64 %2, 1
  %11 = shl nuw i32 %3, 1
  %12 = zext i32 %11 to i64
  %13 = add nsw i32 %3, -1
  %wide.trip.count33 = zext nneg i32 %13 to i64
  br label %.preheader.us

.preheader.us:                                    ; preds = %.preheader.us.preheader, %.preheader.us
  %indvar = phi i64 [ 0, %.preheader.us.preheader ], [ %indvar.next, %.preheader.us ]
  %14 = add nuw i64 %indvar, 1
  %15 = mul i64 %10, %14
  %scevgep = getelementptr i8, ptr %1, i64 %15
  tail call void @llvm.memset.p0.i64(ptr align 2 %scevgep, i8 0, i64 %12, i1 false), !tbaa !27
  %indvar.next = add nuw nsw i64 %indvar, 1
  %exitcond34.not = icmp eq i64 %indvar.next, %wide.trip.count33
  br i1 %exitcond34.not, label %._crit_edge28, label %.preheader.us, !llvm.loop !52

.lr.ph:                                           ; preds = %.lr.ph.preheader, %.lr.ph
  %indvars.iv = phi i64 [ 0, %.lr.ph.preheader ], [ %indvars.iv.next, %.lr.ph ]
  %16 = getelementptr inbounds nuw i16, ptr %1, i64 %indvars.iv
  store i16 %8, ptr %16, align 2, !tbaa !27
  %indvars.iv.next = add nuw nsw i64 %indvars.iv, 1
  %exitcond.not = icmp eq i64 %indvars.iv.next, %wide.trip.count
  br i1 %exitcond.not, label %.preheader21, label %.lr.ph, !llvm.loop !53

._crit_edge28:                                    ; preds = %.preheader.us, %4, %.preheader21
  ret void
}